; Function Attrs: nounwind uwtable
define internal void @handle_preferred_buffer_scale(ptr noundef captures(none) %0, ptr readnone captures(none) %1, i32 noundef %2) #0 {
  %4 = getelementptr inbounds nuw i8, ptr %0, i64 152
  %5 = load ptr, ptr %4, align 8
  %.not = icmp eq ptr %5, null
  br i1 %.not, label %6, label %8

6:                                                ; preds = %3
  %7 = sitofp i32 %2 to double
  tail call fastcc void @Wayland_HandlePreferredScaleChanged(ptr noundef nonnull %0, double noundef %7)
  br label %8

8:                                                ; preds = %6, %3
  ret void
}